target datalayout = "e-m:e-p270:32:32-p271:32:32-p272:64:64-i64:64-i128:128-f80:128-n8:16:32:64-S128"
target triple = "x86_64-pc-linux-gnu"

%"class.std::__cxx11::basic_string" = type { %"struct.std::__cxx11::basic_string<char>::_Alloc_hider", i64, %union.anon }
%"struct.std::__cxx11::basic_string<char>::_Alloc_hider" = type { ptr }
%union.anon = type { i64, [8 x i8] }
%"struct.rocksdb::Configurable::RegisteredOptions" = type { %"class.std::__cxx11::basic_string", i64, ptr }
%"class.rocksdb::Configurable" = type { ptr, %"class.std::vector" }
%"class.std::vector" = type { %"struct.std::_Vector_base" }
%"struct.std::_Vector_base" = type { %"struct.std::_Vector_base<rocksdb::Configurable::RegisteredOptions, std::allocator<rocksdb::Configurable::RegisteredOptions>>::_Vector_impl" }
%"struct.std::_Vector_base<rocksdb::Configurable::RegisteredOptions, std::allocator<rocksdb::Configurable::RegisteredOptions>>::_Vector_impl" = type { %"struct.std::_Vector_base<rocksdb::Configurable::RegisteredOptions, std::allocator<rocksdb::Configurable::RegisteredOptions>>::_Vector_impl_data" }
%"struct.std::_Vector_base<rocksdb::Configurable::RegisteredOptions, std::allocator<rocksdb::Configurable::RegisteredOptions>>::_Vector_impl_data" = type { ptr, ptr, ptr }
%"class.__gnu_cxx::__normal_iterator.18" = type { ptr }

; Function Attrs: mustprogress nounwind uwtable
define linkonce_odr noundef nonnull align 8 dereferenceable(8) ptr @_ZNK9__gnu_cxx17__normal_iteratorIPKN7rocksdb12Configurable17RegisteredOptionsESt6vectorIS3_SaIS3_EEE4baseEv(ptr noundef nonnull align 8 dereferenceable(8) %0) #3 comdat align 2 {
  %2 = alloca ptr, align 8
  store ptr %0, ptr %2, align 8, !tbaa !76
  %3 = load ptr, ptr %2, align 8
  %4 = getelementptr inbounds nuw %"class.__gnu_cxx::__normal_iterator.18", ptr %3, i32 0, i32 0
  ret ptr %4
}

; Function Attrs: mustprogress nounwind uwtable
define linkonce_odr void @_ZN9__gnu_cxx17__normal_iteratorIPKN7rocksdb12Configurable17RegisteredOptionsESt6vectorIS3_SaIS3_EEEC2ERKS5_(ptr noundef nonnull align 8 dereferenceable(8) %0, ptr noundef nonnull align 8 dereferenceable(8) %1) unnamed_addr #3 comdat align 2 {
  %3 = alloca ptr, align 8
  %4 = alloca ptr, align 8
  store ptr %0, ptr %3, align 8, !tbaa !76
  store ptr %1, ptr %4, align 8, !tbaa !322
  %5 = load ptr, ptr %3, align 8
  %6 = getelementptr inbounds nuw %"class.__gnu_cxx::__normal_iterator.18", ptr %5, i32 0, i32 0
  %7 = load ptr, ptr %4, align 8, !tbaa !322
  %8 = load ptr, ptr %7, align 8, !tbaa !21
  store ptr %8, ptr %6, align 8, !tbaa !78
  ret void
}

; Function Attrs: mustprogress nounwind uwtable
define linkonce_odr noundef nonnull align 8 dereferenceable(8) ptr @_ZN9__gnu_cxx17__normal_iteratorIPKN7rocksdb12Configurable17RegisteredOptionsESt6vectorIS3_SaIS3_EEEppEv(ptr noundef nonnull align 8 dereferenceable(8) %0) #3 comdat align 2 {
  %2 = alloca ptr, align 8
  store ptr %0, ptr %2, align 8, !tbaa !76
  %3 = load ptr, ptr %2, align 8
  %4 = getelementptr inbounds nuw %"class.__gnu_cxx::__normal_iterator.18", ptr %3, i32 0, i32 0
  %5 = load ptr, ptr %4, align 8, !tbaa !78
  %6 = getelementptr inbounds nuw %"struct.rocksdb::Configurable::RegisteredOptions", ptr %5, i32 1
  store ptr %6, ptr %4, align 8, !tbaa !78
  ret ptr %3
}

; Function Attrs: mustprogress nounwind uwtable
define internal noundef ptr @_ZN7rocksdb12_GLOBAL__N_111ApplyOffsetEPKNS_12ConfigurableEl(ptr noundef %0, i64 noundef %1) #3 {
  %3 = alloca ptr, align 8
  %4 = alloca i64, align 8
  store ptr %0, ptr %3, align 8, !tbaa !4
  store i64 %1, ptr %4, align 8, !tbaa !45
  %5 = load ptr, ptr %3, align 8, !tbaa !4
  %6 = ptrtoint ptr %5 to i64
  %7 = load i64, ptr %4, align 8, !tbaa !45
  %8 = add nsw i64 %6, %7
  %9 = inttoptr i64 %8 to ptr
  ret ptr %9
}

; Function Attrs: mustprogress nounwind uwtable
define linkonce_odr noundef nonnull align 8 dereferenceable(48) ptr @_ZNK9__gnu_cxx17__normal_iteratorIPKN7rocksdb12Configurable17RegisteredOptionsESt6vectorIS3_SaIS3_EEEdeEv(ptr noundef nonnull align 8 dereferenceable(8) %0) #3 comdat align 2 {
  %2 = alloca ptr, align 8
  store ptr %0, ptr %2, align 8, !tbaa !76
  %3 = load ptr, ptr %2, align 8
  %4 = getelementptr inbounds nuw %"class.__gnu_cxx::__normal_iterator.18", ptr %3, i32 0, i32 0
  %5 = load ptr, ptr %4, align 8, !tbaa !78
  ret ptr %5
}

; Function Attrs: inlinehint mustprogress nounwind uwtable
define linkonce_odr noundef zeroext i1 @_ZN9__gnu_cxxneIPKN7rocksdb12Configurable17RegisteredOptionsESt6vectorIS3_SaIS3_EEEEbRKNS_17__normal_iteratorIT_T0_EESE_(ptr noundef nonnull align 8 dereferenceable(8) %0, ptr noundef nonnull align 8 dereferenceable(8) %1) #2 comdat {
  %3 = alloca ptr, align 8
  %4 = alloca ptr, align 8
  store ptr %0, ptr %3, align 8, !tbaa !76
  store ptr %1, ptr %4, align 8, !tbaa !76
  %5 = load ptr, ptr %3, align 8, !tbaa !76
  %6 = call noundef nonnull align 8 dereferenceable(8) ptr @_ZNK9__gnu_cxx17__normal_iteratorIPKN7rocksdb12Configurable17RegisteredOptionsESt6vectorIS3_SaIS3_EEE4baseEv(ptr noundef nonnull align 8 dereferenceable(8) %5) #18
  %7 = load ptr, ptr %6, align 8, !tbaa !21
  %8 = load ptr, ptr %4, align 8, !tbaa !76
  %9 = call noundef nonnull align 8 dereferenceable(8) ptr @_ZNK9__gnu_cxx17__normal_iteratorIPKN7rocksdb12Configurable17RegisteredOptionsESt6vectorIS3_SaIS3_EEE4baseEv(ptr noundef nonnull align 8 dereferenceable(8) %8) #18
  %10 = load ptr, ptr %9, align 8, !tbaa !21
  %11 = icmp ne ptr %7, %10
  ret i1 %11
}

; Function Attrs: mustprogress nounwind uwtable
define linkonce_odr ptr @_ZNKSt6vectorIN7rocksdb12Configurable17RegisteredOptionsESaIS2_EE3endEv(ptr noundef nonnull align 8 dereferenceable(24) %0) #3 comdat align 2 {
  %2 = alloca %"class.__gnu_cxx::__normal_iterator.18", align 8
  %3 = alloca ptr, align 8
  store ptr %0, ptr %3, align 8, !tbaa !23
  %4 = load ptr, ptr %3, align 8
  %5 = getelementptr inbounds nuw %"struct.std::_Vector_base", ptr %4, i32 0, i32 0
  %6 = getelementptr inbounds nuw %"struct.std::_Vector_base<rocksdb::Configurable::RegisteredOptions, std::allocator<rocksdb::Configurable::RegisteredOptions>>::_Vector_impl_data", ptr %5, i32 0, i32 1
  call void @_ZN9__gnu_cxx17__normal_iteratorIPKN7rocksdb12Configurable17RegisteredOptionsESt6vectorIS3_SaIS3_EEEC2ERKS5_(ptr noundef nonnull align 8 dereferenceable(8) %2, ptr noundef nonnull align 8 dereferenceable(8) %6) #18
  %7 = getelementptr inbounds nuw %"class.__gnu_cxx::__normal_iterator.18", ptr %2, i32 0, i32 0
  %8 = load ptr, ptr %7, align 8
  ret ptr %8
}

; Function Attrs: mustprogress nounwind uwtable
define linkonce_odr ptr @_ZNKSt6vectorIN7rocksdb12Configurable17RegisteredOptionsESaIS2_EE5beginEv(ptr noundef nonnull align 8 dereferenceable(24) %0) #3 comdat align 2 {
  %2 = alloca %"class.__gnu_cxx::__normal_iterator.18", align 8
  %3 = alloca ptr, align 8
  store ptr %0, ptr %3, align 8, !tbaa !23
  %4 = load ptr, ptr %3, align 8
  %5 = getelementptr inbounds nuw %"struct.std::_Vector_base", ptr %4, i32 0, i32 0
  %6 = getelementptr inbounds nuw %"struct.std::_Vector_base<rocksdb::Configurable::RegisteredOptions, std::allocator<rocksdb::Configurable::RegisteredOptions>>::_Vector_impl_data", ptr %5, i32 0, i32 0
  call void @_ZN9__gnu_cxx17__normal_iteratorIPKN7rocksdb12Configurable17RegisteredOptionsESt6vectorIS3_SaIS3_EEEC2ERKS5_(ptr noundef nonnull align 8 dereferenceable(8) %2, ptr noundef nonnull align 8 dereferenceable(8) %6) #18
  %7 = getelementptr inbounds nuw %"class.__gnu_cxx::__normal_iterator.18", ptr %2, i32 0, i32 0
  %8 = load ptr, ptr %7, align 8
  ret ptr %8
}

; Function Attrs: mustprogress uwtable
define noundef ptr @_ZN7rocksdb18ConfigurableHelper10FindOptionERKNS_12ConfigurableERKNSt7__cxx1112basic_stringIcSt11char_traitsIcESaIcEEEPS9_PPv(ptr noundef nonnull align 8 dereferenceable(32) %0, ptr noundef nonnull align 8 dereferenceable(32) %1, ptr noundef %2, ptr noundef %3) #0 align 2 {
  %5 = alloca ptr, align 8
  %6 = alloca ptr, align 8
  %7 = alloca ptr, align 8
  %8 = alloca ptr, align 8
  %9 = alloca ptr, align 8
  %10 = alloca ptr, align 8
  %11 = alloca %"class.__gnu_cxx::__normal_iterator.18", align 8
  %12 = alloca %"class.__gnu_cxx::__normal_iterator.18", align 8
  %13 = alloca i32, align 4
  %14 = alloca ptr, align 8
  %15 = alloca ptr, align 8
  store ptr %0, ptr %6, align 8, !tbaa !4
  store ptr %1, ptr %7, align 8, !tbaa !9
  store ptr %2, ptr %8, align 8, !tbaa !9
  store ptr %3, ptr %9, align 8, !tbaa !80
  call void @llvm.lifetime.start.p0(i64 8, ptr %10) #18
  %16 = load ptr, ptr %6, align 8, !tbaa !4
  %17 = getelementptr inbounds nuw %"class.rocksdb::Configurable", ptr %16, i32 0, i32 1
  store ptr %17, ptr %10, align 8, !tbaa !23
  call void @llvm.lifetime.start.p0(i64 8, ptr %11) #18
  %18 = load ptr, ptr %10, align 8, !tbaa !23
  %19 = call ptr @_ZNKSt6vectorIN7rocksdb12Configurable17RegisteredOptionsESaIS2_EE5beginEv(ptr noundef nonnull align 8 dereferenceable(24) %18) #18
  %20 = getelementptr inbounds nuw %"class.__gnu_cxx::__normal_iterator.18", ptr %11, i32 0, i32 0
  store ptr %19, ptr %20, align 8
  call void @llvm.lifetime.start.p0(i64 8, ptr %12) #18
  %21 = load ptr, ptr %10, align 8, !tbaa !23
  %22 = call ptr @_ZNKSt6vectorIN7rocksdb12Configurable17RegisteredOptionsESaIS2_EE3endEv(ptr noundef nonnull align 8 dereferenceable(24) %21) #18
  %23 = getelementptr inbounds nuw %"class.__gnu_cxx::__normal_iterator.18", ptr %12, i32 0, i32 0
  store ptr %22, ptr %23, align 8
  br label %24

24:                                               ; preds = %58, %4
  %25 = call noundef zeroext i1 @_ZN9__gnu_cxxneIPKN7rocksdb12Configurable17RegisteredOptionsESt6vectorIS3_SaIS3_EEEEbRKNS_17__normal_iteratorIT_T0_EESE_(ptr noundef nonnull align 8 dereferenceable(8) %11, ptr noundef nonnull align 8 dereferenceable(8) %12) #18
  br i1 %25, label %27, label %26

26:                                               ; preds = %24
  store i32 2, ptr %13, align 4
  br label %60

27:                                               ; preds = %24
  call void @llvm.lifetime.start.p0(i64 8, ptr %14) #18
  %28 = call noundef nonnull align 8 dereferenceable(48) ptr @_ZNK9__gnu_cxx17__normal_iteratorIPKN7rocksdb12Configurable17RegisteredOptionsESt6vectorIS3_SaIS3_EEEdeEv(ptr noundef nonnull align 8 dereferenceable(8) %11) #18
  store ptr %28, ptr %14, align 8, !tbaa !21
  %29 = load ptr, ptr %14, align 8, !tbaa !21
  %30 = getelementptr inbounds nuw %"struct.rocksdb::Configurable::RegisteredOptions", ptr %29, i32 0, i32 2
  %31 = load ptr, ptr %30, align 8, !tbaa !14
  %32 = icmp ne ptr %31, null
  br i1 %32, label %33, label %54

33:                                               ; preds = %27
  call void @llvm.lifetime.start.p0(i64 8, ptr %15) #18
  %34 = load ptr, ptr %7, align 8, !tbaa !9
  %35 = load ptr, ptr %14, align 8, !tbaa !21
  %36 = getelementptr inbounds nuw %"struct.rocksdb::Configurable::RegisteredOptions", ptr %35, i32 0, i32 2
  %37 = load ptr, ptr %36, align 8, !tbaa !14
  %38 = load ptr, ptr %8, align 8, !tbaa !9
  %39 = call noundef ptr @_ZN7rocksdb14OptionTypeInfo4FindERKNSt7__cxx1112basic_stringIcSt11char_traitsIcESaIcEEERKSt13unordered_mapIS6_S0_St4hashIS6_ESt8equal_toIS6_ESaISt4pairIS7_S0_EEEPS6_(ptr noundef nonnull align 8 dereferenceable(32) %34, ptr noundef nonnull align 8 dereferenceable(56) %37, ptr noundef %38)
  store ptr %39, ptr %15, align 8, !tbaa !32
  %40 = load ptr, ptr %15, align 8, !tbaa !32
  %41 = icmp ne ptr %40, null
  br i1 %41, label %42, label %50

42:                                               ; preds = %33
  %43 = load ptr, ptr %6, align 8, !tbaa !4
  %44 = load ptr, ptr %14, align 8, !tbaa !21
  %45 = getelementptr inbounds nuw %"struct.rocksdb::Configurable::RegisteredOptions", ptr %44, i32 0, i32 1
  %46 = load i64, ptr %45, align 8, !tbaa !20
  %47 = call noundef ptr @_ZN7rocksdb12_GLOBAL__N_111ApplyOffsetEPKNS_12ConfigurableEl(ptr noundef %43, i64 noundef %46)
  %48 = load ptr, ptr %9, align 8, !tbaa !80
  store ptr %47, ptr %48, align 8, !tbaa !11
  %49 = load ptr, ptr %15, align 8, !tbaa !32
  store ptr %49, ptr %5, align 8
  store i32 1, ptr %13, align 4
  br label %51

50:                                               ; preds = %33
  store i32 0, ptr %13, align 4
  br label %51

51:                                               ; preds = %50, %42
  call void @llvm.lifetime.end.p0(i64 8, ptr %15) #18
  %52 = load i32, ptr %13, align 4
  switch i32 %52, label %55 [
    i32 0, label %53
  ]

53:                                               ; preds = %51
  br label %54

54:                                               ; preds = %53, %27
  store i32 0, ptr %13, align 4
  br label %55

55:                                               ; preds = %54, %51
  call void @llvm.lifetime.end.p0(i64 8, ptr %14) #18
  %56 = load i32, ptr %13, align 4
  switch i32 %56, label %60 [
    i32 0, label %57
  ]

57:                                               ; preds = %55
  br label %58

58:                                               ; preds = %57
  %59 = call noundef nonnull align 8 dereferenceable(8) ptr @_ZN9__gnu_cxx17__normal_iteratorIPKN7rocksdb12Configurable17RegisteredOptionsESt6vectorIS3_SaIS3_EEEppEv(ptr noundef nonnull align 8 dereferenceable(8) %11) #18
  br label %24

60:                                               ; preds = %55, %26
  call void @llvm.lifetime.end.p0(i64 8, ptr %12) #18
  call void @llvm.lifetime.end.p0(i64 8, ptr %11) #18
  call void @llvm.lifetime.end.p0(i64 8, ptr %10) #18
  %61 = load i32, ptr %13, align 4
  switch i32 %61, label %65 [
    i32 2, label %62
    i32 1, label %63
  ]

62:                                               ; preds = %60
  store ptr null, ptr %5, align 8
  br label %63

63:                                               ; preds = %62, %60
  %64 = load ptr, ptr %5, align 8
  ret ptr %64

65:                                               ; preds = %60
  unreachable
}