; Function Attrs: mustprogress uwtable
define noundef ptr @_ZN7rocksdb18ConfigurableHelper10FindOptionERKNS_12ConfigurableERKNSt7__cxx1112basic_stringIcSt11char_traitsIcESaIcEEEPS9_PPv(ptr noundef nonnull align 8 dereferenceable(32) %0, ptr noundef nonnull align 8 dereferenceable(32) %1, ptr noundef %2, ptr noundef writeonly captures(none) %3) local_unnamed_addr #0 align 2 {
  %5 = getelementptr inbounds nuw i8, ptr %0, i64 8
  %6 = load ptr, ptr %5, align 8, !tbaa !29
  %7 = getelementptr inbounds nuw i8, ptr %0, i64 16
  %8 = load ptr, ptr %7, align 8, !tbaa !29
  %.not2931 = icmp eq ptr %6, %8
  br i1 %.not2931, label %.loopexit, label %.lr.ph

.lr.ph:                                           ; preds = %4, %19
  %.sroa.023.032 = phi ptr [ %20, %19 ], [ %6, %4 ]
  %9 = getelementptr inbounds nuw i8, ptr %.sroa.023.032, i64 40
  %10 = load ptr, ptr %9, align 8, !tbaa !14
  %.not = icmp eq ptr %10, null
  br i1 %.not, label %19, label %11

11:                                               ; preds = %.lr.ph
  %12 = tail call noundef ptr @_ZN7rocksdb14OptionTypeInfo4FindERKNSt7__cxx1112basic_stringIcSt11char_traitsIcESaIcEEERKSt13unordered_mapIS6_S0_St4hashIS6_ESt8equal_toIS6_ESaISt4pairIS7_S0_EEEPS6_(ptr noundef nonnull align 8 dereferenceable(32) %1, ptr noundef nonnull align 8 dereferenceable(56) %10, ptr noundef %2)
  %.not21 = icmp eq ptr %12, null
  br i1 %.not21, label %19, label %13

13:                                               ; preds = %11
  %14 = getelementptr inbounds nuw i8, ptr %.sroa.023.032, i64 32
  %15 = load i64, ptr %14, align 8, !tbaa !17
  %16 = ptrtoint ptr %0 to i64
  %17 = add nsw i64 %15, %16
  %18 = inttoptr i64 %17 to ptr
  store ptr %18, ptr %3, align 8, !tbaa !71
  br label %.loopexit

19:                                               ; preds = %.lr.ph, %11
  %20 = getelementptr inbounds nuw i8, ptr %.sroa.023.032, i64 48
  %.not29 = icmp eq ptr %20, %8
  br i1 %.not29, label %.loopexit, label %.lr.ph

.loopexit:                                        ; preds = %19, %4, %13
  %spec.select = phi ptr [ %12, %13 ], [ null, %4 ], [ null, %19 ]
  ret ptr %spec.select
}